; Function Attrs: mustprogress uwtable
define void @_ZN3g2o16OptimizableGraph14performActionsEiRSt3setIPNS_16HyperGraphActionESt4lessIS3_ESaIS3_EE(ptr noundef nonnull align 8 dereferenceable(288) %0, i32 noundef %1, ptr noundef nonnull readonly align 8 captures(address) dereferenceable(48) %2) local_unnamed_addr #4 align 2 personality ptr @__gxx_personality_v0 {
  %4 = alloca %"class.g2o::HyperGraphAction::ParametersIteration", align 8
  %5 = getelementptr inbounds nuw i8, ptr %2, i64 40
  %6 = load i64, ptr %5, align 8, !tbaa !96
  %.not = icmp eq i64 %6, 0
  br i1 %.not, label %21, label %7

7:                                                ; preds = %3
  call void @llvm.lifetime.start.p0(i64 16, ptr nonnull %4) #45
  call void @_ZN3g2o16HyperGraphAction19ParametersIterationC1Ei(ptr noundef nonnull align 8 dereferenceable(12) %4, i32 noundef %1)
  %8 = getelementptr inbounds nuw i8, ptr %2, i64 24
  %9 = load ptr, ptr %8, align 8, !tbaa !94
  %10 = getelementptr inbounds nuw i8, ptr %2, i64 8
  %.not910 = icmp eq ptr %9, %10
  br i1 %.not910, label %._crit_edge, label %.lr.ph

._crit_edge:                                      ; preds = %17, %7
  call void @_ZN3g2o16HyperGraphAction10ParametersD2Ev(ptr noundef nonnull align 8 dereferenceable(12) %4) #45
  call void @llvm.lifetime.end.p0(i64 16, ptr nonnull %4) #45
  br label %21

.lr.ph:                                           ; preds = %7, %17
  %.sroa.06.011 = phi ptr [ %18, %17 ], [ %9, %7 ]
  %11 = getelementptr inbounds nuw i8, ptr %.sroa.06.011, i64 32
  %12 = load ptr, ptr %11, align 8, !tbaa !210
  %13 = load ptr, ptr %12, align 8, !tbaa !9
  %14 = getelementptr inbounds nuw i8, ptr %13, i64 16
  %15 = load ptr, ptr %14, align 8
  %16 = invoke noundef ptr %15(ptr noundef nonnull align 8 dereferenceable(8) %12, ptr noundef nonnull %0, ptr noundef nonnull %4)
          to label %17 unwind label %19

17:                                               ; preds = %.lr.ph
  %18 = call noundef ptr @_ZSt18_Rb_tree_incrementPKSt18_Rb_tree_node_base(ptr noundef nonnull %.sroa.06.011) #47
  %.not9 = icmp eq ptr %18, %10
  br i1 %.not9, label %._crit_edge, label %.lr.ph, !llvm.loop !212

19:                                               ; preds = %.lr.ph
  %20 = landingpad { ptr, i32 }
          cleanup
  call void @_ZN3g2o16HyperGraphAction10ParametersD2Ev(ptr noundef nonnull align 8 dereferenceable(12) %4) #45
  call void @llvm.lifetime.end.p0(i64 16, ptr nonnull %4) #45
  resume { ptr, i32 } %20

21:                                               ; preds = %._crit_edge, %3
  ret void
}